(iVSM_Centroid
VSM_CentroidClassifier
p1
(dp2
S'modelCentroid'
p3
(dp4
Vhouston
p5
F0.34051040839259966
sVaugust
p6
F0.12043883404715094
sVhurrican
p7
F0.58623919657380086
sVharvey
p8
F0.73507809805177782
sVflood
p9
F0.22096735152082611
sVstorm
p10
F0.48925258590168397
sVtime
p11
F0.13520650107399271
sVhome
p12
F0.20238864722256111
sV2017
p13
F0.30166862356413782
sVtexa
p14
F0.50129961784764787
ssS'modelCentroidScalar'
p15
F1.3054543070553595
sb.